; ModuleID = '56/1710.c'
source_filename = "56/1710.c"
target datalayout = "e-m:e-p270:32:32-p271:32:32-p272:64:64-i64:64-f80:128-n8:16:32:64-S128"
target triple = "x86_64-pc-linux-gnu"

@.str = private unnamed_addr constant [3 x i8] c"%d\00", align 1
@.str.1 = private unnamed_addr constant [6 x i8] c"wrong\00", align 1

; Function Attrs: noinline nounwind uwtable
define dso_local void @main() #0 {
  %1 = alloca i32, align 4
  %2 = alloca i32, align 4
  %3 = alloca i32, align 4
  %4 = alloca i32, align 4
  %5 = alloca i32, align 4
  %6 = alloca i32, align 4
  %7 = alloca i32, align 4
  %8 = alloca i32, align 4
  %9 = call i32 (i8*, ...) @__isoc99_scanf(i8* getelementptr inbounds ([3 x i8], [3 x i8]* @.str, i64 0, i64 0), i32* %7)
  %10 = load i32, i32* %7, align 4
  %11 = sdiv i32 %10, 10000
  store i32 %11, i32* %1, align 4
  %12 = load i32, i32* %7, align 4
  %13 = load i32, i32* %1, align 4
  %14 = mul nsw i32 %13, 10000
  %15 = sub nsw i32 %12, %14
  %16 = sdiv i32 %15, 1000
  store i32 %16, i32* %2, align 4
  %17 = load i32, i32* %7, align 4
  %18 = load i32, i32* %1, align 4
  %19 = mul nsw i32 %18, 10000
  %20 = sub nsw i32 %17, %19
  %21 = load i32, i32* %2, align 4
  %22 = mul nsw i32 %21, 1000
  %23 = sub nsw i32 %20, %22
  %24 = sdiv i32 %23, 100
  store i32 %24, i32* %3, align 4
  %25 = load i32, i32* %7, align 4
  %26 = load i32, i32* %1, align 4
  %27 = mul nsw i32 %26, 10000
  %28 = sub nsw i32 %25, %27
  %29 = load i32, i32* %2, align 4
  %30 = mul nsw i32 %29, 1000
  %31 = sub nsw i32 %28, %30
  %32 = load i32, i32* %3, align 4
  %33 = mul nsw i32 %32, 100
  %34 = sub nsw i32 %31, %33
  %35 = sdiv i32 %34, 10
  store i32 %35, i32* %4, align 4
  %36 = load i32, i32* %7, align 4
  %37 = load i32, i32* %1, align 4
  %38 = mul nsw i32 %37, 10000
  %39 = sub nsw i32 %36, %38
  %40 = load i32, i32* %2, align 4
  %41 = mul nsw i32 %40, 1000
  %42 = sub nsw i32 %39, %41
  %43 = load i32, i32* %3, align 4
  %44 = mul nsw i32 %43, 100
  %45 = sub nsw i32 %42, %44
  %46 = load i32, i32* %4, align 4
  %47 = mul nsw i32 %46, 10
  %48 = sub nsw i32 %45, %47
  store i32 %48, i32* %5, align 4
  %49 = load i32, i32* %1, align 4
  %50 = icmp eq i32 %49, 0
  br i1 %50, label %51, label %107

51:                                               ; preds = %0
  %52 = load i32, i32* %2, align 4
  %53 = icmp ne i32 %52, 0
  br i1 %53, label %54, label %70

54:                                               ; preds = %51
  %55 = load i32, i32* %5, align 4
  %56 = mul nsw i32 %55, 1000
  %57 = load i32, i32* %4, align 4
  %58 = mul nsw i32 %57, 100
  %59 = add nsw i32 %56, %58
  %60 = load i32, i32* %3, align 4
  %61 = mul nsw i32 %60, 10
  %62 = add nsw i32 %59, %61
  %63 = load i32, i32* %2, align 4
  %64 = mul nsw i32 %63, 1
  %65 = add nsw i32 %62, %64
  %66 = load i32, i32* %1, align 4
  %67 = add nsw i32 %65, %66
  store i32 %67, i32* %8, align 4
  %68 = load i32, i32* %8, align 4
  %69 = call i32 (i8*, ...) @printf(i8* getelementptr inbounds ([3 x i8], [3 x i8]* @.str, i64 0, i64 0), i32 %68)
  br label %106

70:                                               ; preds = %51
  %71 = load i32, i32* %3, align 4
  %72 = icmp ne i32 %71, 0
  br i1 %72, label %73, label %84

73:                                               ; preds = %70
  %74 = load i32, i32* %5, align 4
  %75 = mul nsw i32 %74, 100
  %76 = load i32, i32* %4, align 4
  %77 = mul nsw i32 %76, 10
  %78 = add nsw i32 %75, %77
  %79 = load i32, i32* %3, align 4
  %80 = mul nsw i32 %79, 1
  %81 = add nsw i32 %78, %80
  store i32 %81, i32* %8, align 4
  %82 = load i32, i32* %8, align 4
  %83 = call i32 (i8*, ...) @printf(i8* getelementptr inbounds ([3 x i8], [3 x i8]* @.str, i64 0, i64 0), i32 %82)
  br label %105

84:                                               ; preds = %70
  %85 = load i32, i32* %4, align 4
  %86 = icmp ne i32 %85, 0
  br i1 %86, label %87, label %94

87:                                               ; preds = %84
  %88 = load i32, i32* %5, align 4
  %89 = mul nsw i32 %88, 10
  %90 = load i32, i32* %4, align 4
  %91 = add nsw i32 %89, %90
  store i32 %91, i32* %8, align 4
  %92 = load i32, i32* %8, align 4
  %93 = call i32 (i8*, ...) @printf(i8* getelementptr inbounds ([3 x i8], [3 x i8]* @.str, i64 0, i64 0), i32 %92)
  br label %104

94:                                               ; preds = %84
  %95 = load i32, i32* %5, align 4
  %96 = icmp ne i32 %95, 0
  br i1 %96, label %97, label %101

97:                                               ; preds = %94
  %98 = load i32, i32* %5, align 4
  store i32 %98, i32* %8, align 4
  %99 = load i32, i32* %8, align 4
  %100 = call i32 (i8*, ...) @printf(i8* getelementptr inbounds ([3 x i8], [3 x i8]* @.str, i64 0, i64 0), i32 %99)
  br label %103

101:                                              ; preds = %94
  %102 = call i32 (i8*, ...) @printf(i8* getelementptr inbounds ([6 x i8], [6 x i8]* @.str.1, i64 0, i64 0))
  br label %103

103:                                              ; preds = %101, %97
  br label %104

104:                                              ; preds = %103, %87
  br label %105

105:                                              ; preds = %104, %73
  br label %106

106:                                              ; preds = %105, %54
  br label %123

107:                                              ; preds = %0
  %108 = load i32, i32* %5, align 4
  %109 = mul nsw i32 %108, 10000
  %110 = load i32, i32* %4, align 4
  %111 = mul nsw i32 %110, 1000
  %112 = add nsw i32 %109, %111
  %113 = load i32, i32* %3, align 4
  %114 = mul nsw i32 %113, 100
  %115 = add nsw i32 %112, %114
  %116 = load i32, i32* %2, align 4
  %117 = mul nsw i32 %116, 10
  %118 = add nsw i32 %115, %117
  %119 = load i32, i32* %1, align 4
  %120 = add nsw i32 %118, %119
  store i32 %120, i32* %8, align 4
  %121 = load i32, i32* %8, align 4
  %122 = call i32 (i8*, ...) @printf(i8* getelementptr inbounds ([3 x i8], [3 x i8]* @.str, i64 0, i64 0), i32 %121)
  br label %123

123:                                              ; preds = %107, %106
  ret void
}

declare dso_local i32 @__isoc99_scanf(i8*, ...) #1

declare dso_local i32 @printf(i8*, ...) #1


!llvm.module.flags = !{!0}
!llvm.ident = !{!1}

!0 = !{i32 1, !"wchar_size", i32 4}
!1 = !{!"clang version 10.0.0-4ubuntu1 "}
